; Function Attrs: mustprogress nofree norecurse nosync nounwind memory(argmem: readwrite) uwtable
define void @_ZN32pxrInternal_v0_24__pxrReserved__21pxr_double_conversion6Bignum12AssignBignumERKS1_(ptr nocapture noundef nonnull writeonly align 4 dereferenceable(516) %0, ptr nocapture noundef nonnull readonly align 4 dereferenceable(516) %1) local_unnamed_addr #3 align 2 {
  %3 = getelementptr inbounds nuw i8, ptr %1, i64 2
  %4 = load i16, ptr %3, align 2
  %5 = getelementptr inbounds nuw i8, ptr %0, i64 2
  store i16 %4, ptr %5, align 2
  %6 = load i16, ptr %1, align 4
  %7 = icmp sgt i16 %6, 0
  br i1 %7, label %.lr.ph, label %._crit_edge

.lr.ph:                                           ; preds = %2
  %8 = getelementptr inbounds nuw i8, ptr %1, i64 4
  %9 = getelementptr inbounds nuw i8, ptr %0, i64 4
  br label %10

10:                                               ; preds = %.lr.ph, %10
  %indvars.iv = phi i64 [ 0, %.lr.ph ], [ %indvars.iv.next, %10 ]
  %11 = getelementptr inbounds [128 x i32], ptr %8, i64 0, i64 %indvars.iv
  %12 = load i32, ptr %11, align 4
  %13 = getelementptr inbounds [128 x i32], ptr %9, i64 0, i64 %indvars.iv
  store i32 %12, ptr %13, align 4
  %indvars.iv.next = add nuw nsw i64 %indvars.iv, 1
  %14 = load i16, ptr %1, align 4
  %15 = sext i16 %14 to i64
  %16 = icmp slt i64 %indvars.iv.next, %15
  br i1 %16, label %10, label %._crit_edge, !llvm.loop !6

._crit_edge:                                      ; preds = %10, %2
  %.lcssa = phi i16 [ %6, %2 ], [ %14, %10 ]
  store i16 %.lcssa, ptr %0, align 4
  ret void
}